target datalayout = "e-m:e-p270:32:32-p271:32:32-p272:64:64-i64:64-i128:128-f80:128-n8:16:32:64-S128"
target triple = "x86_64-pc-linux-gnu"

%struct._packet_info = type { ptr, ptr, i32, i32, %struct.nstime_t, %struct.nstime_t, %struct.nstime_t, i8, ptr, ptr, ptr, ptr, %struct._address, %struct._address, %struct._address, %struct._address, %struct._address, %struct._address, i32, ptr, i8, [3 x i8], %struct.anon, i32, i32, i32, i32, ptr, i8, ptr, ptr, i16, i16, i32, i32, i16, i32, i32, ptr, ptr, ptr, i8, i8, i16, i16, i16, i32, i16, i16, ptr, ptr, ptr, ptr, ptr, i32, i32 }
%struct.nstime_t = type { i64, i32 }
%struct._address = type { i32, i32, ptr, ptr }
%struct.anon = type { i8, [3 x i8] }

@ett_pn_ptcp = internal global i32 0, align 4
@.str.70 = private unnamed_addr constant [8 x i8] c"PN-PTCP\00", align 1
@proto_pn_ptcp = internal global i32 0, align 4
@.str.110 = private unnamed_addr constant [16 x i8] c"PROFINET PTCP, \00", align 1
@.str.111 = private unnamed_addr constant [18 x i8] c"RTSync FU (Clock)\00", align 1
@.str.112 = private unnamed_addr constant [18 x i8] c"RTSync FU  (Time)\00", align 1
@.str.113 = private unnamed_addr constant [17 x i8] c"RTSync FU (Time)\00", align 1
@.str.114 = private unnamed_addr constant [18 x i8] c"RTSync    (Clock)\00", align 1
@.str.115 = private unnamed_addr constant [15 x i8] c"RTSync (Clock)\00", align 1
@.str.116 = private unnamed_addr constant [18 x i8] c"RTSync     (Time)\00", align 1
@.str.117 = private unnamed_addr constant [14 x i8] c"RTSync (Time)\00", align 1
@.str.118 = private unnamed_addr constant [18 x i8] c"Announce  (Clock)\00", align 1
@.str.119 = private unnamed_addr constant [17 x i8] c"Announce (Clock)\00", align 1
@.str.120 = private unnamed_addr constant [18 x i8] c"Announce   (Time)\00", align 1
@.str.121 = private unnamed_addr constant [16 x i8] c"Announce (Time)\00", align 1
@.str.122 = private unnamed_addr constant [18 x i8] c"FollowUp  (Clock)\00", align 1
@.str.123 = private unnamed_addr constant [17 x i8] c"FollowUp (Clock)\00", align 1
@.str.124 = private unnamed_addr constant [18 x i8] c"FollowUp   (Time)\00", align 1
@.str.125 = private unnamed_addr constant [16 x i8] c"FollowUp (Time)\00", align 1
@.str.126 = private unnamed_addr constant [18 x i8] c"DelayReq         \00", align 1
@.str.127 = private unnamed_addr constant [9 x i8] c"DelayReq\00", align 1
@.str.128 = private unnamed_addr constant [18 x i8] c"DelayRes         \00", align 1
@.str.129 = private unnamed_addr constant [9 x i8] c"DelayRes\00", align 1
@.str.130 = private unnamed_addr constant [18 x i8] c"DelayFuRes       \00", align 1
@.str.131 = private unnamed_addr constant [11 x i8] c"DelayFuRes\00", align 1
@.str.132 = private unnamed_addr constant [24 x i8] c"Reserved FrameID 0x%04x\00", align 1

; Function Attrs: null_pointer_is_valid sspstrong uwtable
define internal zeroext i1 @dissect_PNPTCP_Data_heur(ptr noundef %0, ptr noundef %1, ptr noundef %2, ptr noundef %3) #0 {
  %5 = alloca i1, align 1
  %6 = alloca ptr, align 8
  %7 = alloca ptr, align 8
  %8 = alloca ptr, align 8
  %9 = alloca ptr, align 8
  %10 = alloca i16, align 2
  %11 = alloca ptr, align 8
  %12 = alloca ptr, align 8
  %13 = alloca i32, align 4
  %14 = alloca i32, align 4
  %15 = alloca i32, align 4
  store ptr %0, ptr %6, align 8
  store ptr %1, ptr %7, align 8
  store ptr %2, ptr %8, align 8
  store ptr %3, ptr %9, align 8
  call void @llvm.lifetime.start.p0(i64 2, ptr %10) #3
  %16 = load ptr, ptr %9, align 8
  %17 = ptrtoint ptr %16 to i64
  %18 = trunc i64 %17 to i32
  %19 = trunc i32 %18 to i16
  store i16 %19, ptr %10, align 2
  call void @llvm.lifetime.start.p0(i64 8, ptr %11) #3
  call void @llvm.lifetime.start.p0(i64 8, ptr %12) #3
  call void @llvm.lifetime.start.p0(i64 4, ptr %13) #3
  store i32 0, ptr %13, align 4
  call void @llvm.lifetime.start.p0(i64 4, ptr %14) #3
  %20 = load i16, ptr %10, align 2
  %21 = zext i16 %20 to i32
  %22 = icmp sge i32 %21, 256
  br i1 %22, label %23, label %27

23:                                               ; preds = %4
  %24 = load i16, ptr %10, align 2
  %25 = zext i16 %24 to i32
  %26 = icmp slt i32 %25, 65280
  br i1 %26, label %31, label %27

27:                                               ; preds = %23, %4
  %28 = load i16, ptr %10, align 2
  %29 = zext i16 %28 to i32
  %30 = icmp sgt i32 %29, 65375
  br i1 %30, label %31, label %32

31:                                               ; preds = %27, %23
  store i1 false, ptr %5, align 1
  store i32 1, ptr %15, align 4
  br label %172

32:                                               ; preds = %27
  %33 = load ptr, ptr %7, align 8
  %34 = getelementptr inbounds nuw %struct._packet_info, ptr %33, i32 0, i32 1
  %35 = load ptr, ptr %34, align 8
  call void @col_set_str(ptr noundef %35, i32 noundef 35, ptr noundef @.str.70)
  %36 = load ptr, ptr %7, align 8
  %37 = getelementptr inbounds nuw %struct._packet_info, ptr %36, i32 0, i32 1
  %38 = load ptr, ptr %37, align 8
  call void @col_clear(ptr noundef %38, i32 noundef 25)
  %39 = load ptr, ptr %8, align 8
  %40 = load i32, ptr @proto_pn_ptcp, align 4
  %41 = load ptr, ptr %6, align 8
  %42 = call ptr (ptr, i32, ptr, i32, i32, ptr, ...) @proto_tree_add_protocol_format(ptr noundef %39, i32 noundef %40, ptr noundef %41, i32 noundef 0, i32 noundef 0, ptr noundef @.str.110)
  store ptr %42, ptr %11, align 8
  %43 = load ptr, ptr %11, align 8
  %44 = load i32, ptr @ett_pn_ptcp, align 4
  %45 = call ptr @proto_item_add_subtree(ptr noundef %43, i32 noundef %44)
  store ptr %45, ptr %12, align 8
  %46 = load i32, ptr %13, align 4
  store i32 %46, ptr %14, align 4
  %47 = load i16, ptr %10, align 2
  %48 = zext i16 %47 to i32
  switch i32 %48, label %145 [
    i32 32, label %49
    i32 33, label %57
    i32 128, label %65
    i32 129, label %73
    i32 65280, label %81
    i32 65281, label %89
    i32 65312, label %97
    i32 65313, label %105
    i32 65344, label %113
    i32 65345, label %121
    i32 65346, label %129
    i32 65347, label %137
  ]

49:                                               ; preds = %32
  %50 = load ptr, ptr %6, align 8
  %51 = load i32, ptr %13, align 4
  %52 = load ptr, ptr %7, align 8
  %53 = load ptr, ptr %12, align 8
  %54 = load ptr, ptr %11, align 8
  %55 = load i16, ptr %10, align 2
  %56 = call i32 @dissect_PNPTCP_RTSyncPDU(ptr noundef %50, i32 noundef %51, ptr noundef %52, ptr noundef %53, ptr noundef %54, i16 noundef zeroext %55, ptr noundef @.str.111, ptr noundef @.str.111)
  store i32 %56, ptr %13, align 4
  br label %167

57:                                               ; preds = %32
  %58 = load ptr, ptr %6, align 8
  %59 = load i32, ptr %13, align 4
  %60 = load ptr, ptr %7, align 8
  %61 = load ptr, ptr %12, align 8
  %62 = load ptr, ptr %11, align 8
  %63 = load i16, ptr %10, align 2
  %64 = call i32 @dissect_PNPTCP_RTSyncPDU(ptr noundef %58, i32 noundef %59, ptr noundef %60, ptr noundef %61, ptr noundef %62, i16 noundef zeroext %63, ptr noundef @.str.112, ptr noundef @.str.113)
  store i32 %64, ptr %13, align 4
  br label %167

65:                                               ; preds = %32
  %66 = load ptr, ptr %6, align 8
  %67 = load i32, ptr %13, align 4
  %68 = load ptr, ptr %7, align 8
  %69 = load ptr, ptr %12, align 8
  %70 = load ptr, ptr %11, align 8
  %71 = load i16, ptr %10, align 2
  %72 = call i32 @dissect_PNPTCP_RTSyncPDU(ptr noundef %66, i32 noundef %67, ptr noundef %68, ptr noundef %69, ptr noundef %70, i16 noundef zeroext %71, ptr noundef @.str.114, ptr noundef @.str.115)
  store i32 %72, ptr %13, align 4
  br label %167

73:                                               ; preds = %32
  %74 = load ptr, ptr %6, align 8
  %75 = load i32, ptr %13, align 4
  %76 = load ptr, ptr %7, align 8
  %77 = load ptr, ptr %12, align 8
  %78 = load ptr, ptr %11, align 8
  %79 = load i16, ptr %10, align 2
  %80 = call i32 @dissect_PNPTCP_RTSyncPDU(ptr noundef %74, i32 noundef %75, ptr noundef %76, ptr noundef %77, ptr noundef %78, i16 noundef zeroext %79, ptr noundef @.str.116, ptr noundef @.str.117)
  store i32 %80, ptr %13, align 4
  br label %167

81:                                               ; preds = %32
  %82 = load ptr, ptr %6, align 8
  %83 = load i32, ptr %13, align 4
  %84 = load ptr, ptr %7, align 8
  %85 = load ptr, ptr %12, align 8
  %86 = load ptr, ptr %11, align 8
  %87 = load i16, ptr %10, align 2
  %88 = call i32 @dissect_PNPTCP_AnnouncePDU(ptr noundef %82, i32 noundef %83, ptr noundef %84, ptr noundef %85, ptr noundef %86, i16 noundef zeroext %87, ptr noundef @.str.118, ptr noundef @.str.119)
  store i32 %88, ptr %13, align 4
  br label %167

89:                                               ; preds = %32
  %90 = load ptr, ptr %6, align 8
  %91 = load i32, ptr %13, align 4
  %92 = load ptr, ptr %7, align 8
  %93 = load ptr, ptr %12, align 8
  %94 = load ptr, ptr %11, align 8
  %95 = load i16, ptr %10, align 2
  %96 = call i32 @dissect_PNPTCP_AnnouncePDU(ptr noundef %90, i32 noundef %91, ptr noundef %92, ptr noundef %93, ptr noundef %94, i16 noundef zeroext %95, ptr noundef @.str.120, ptr noundef @.str.121)
  store i32 %96, ptr %13, align 4
  br label %167

97:                                               ; preds = %32
  %98 = load ptr, ptr %6, align 8
  %99 = load i32, ptr %13, align 4
  %100 = load ptr, ptr %7, align 8
  %101 = load ptr, ptr %12, align 8
  %102 = load ptr, ptr %11, align 8
  %103 = load i16, ptr %10, align 2
  %104 = call i32 @dissect_PNPTCP_FollowUpPDU(ptr noundef %98, i32 noundef %99, ptr noundef %100, ptr noundef %101, ptr noundef %102, i16 noundef zeroext %103, ptr noundef @.str.122, ptr noundef @.str.123)
  store i32 %104, ptr %13, align 4
  br label %167

105:                                              ; preds = %32
  %106 = load ptr, ptr %6, align 8
  %107 = load i32, ptr %13, align 4
  %108 = load ptr, ptr %7, align 8
  %109 = load ptr, ptr %12, align 8
  %110 = load ptr, ptr %11, align 8
  %111 = load i16, ptr %10, align 2
  %112 = call i32 @dissect_PNPTCP_FollowUpPDU(ptr noundef %106, i32 noundef %107, ptr noundef %108, ptr noundef %109, ptr noundef %110, i16 noundef zeroext %111, ptr noundef @.str.124, ptr noundef @.str.125)
  store i32 %112, ptr %13, align 4
  br label %167

113:                                              ; preds = %32
  %114 = load ptr, ptr %6, align 8
  %115 = load i32, ptr %13, align 4
  %116 = load ptr, ptr %7, align 8
  %117 = load ptr, ptr %12, align 8
  %118 = load ptr, ptr %11, align 8
  %119 = load i16, ptr %10, align 2
  %120 = call i32 @dissect_PNPTCP_DelayPDU(ptr noundef %114, i32 noundef %115, ptr noundef %116, ptr noundef %117, ptr noundef %118, i16 noundef zeroext %119, ptr noundef @.str.126, ptr noundef @.str.127)
  store i32 %120, ptr %13, align 4
  br label %167

121:                                              ; preds = %32
  %122 = load ptr, ptr %6, align 8
  %123 = load i32, ptr %13, align 4
  %124 = load ptr, ptr %7, align 8
  %125 = load ptr, ptr %12, align 8
  %126 = load ptr, ptr %11, align 8
  %127 = load i16, ptr %10, align 2
  %128 = call i32 @dissect_PNPTCP_DelayPDU(ptr noundef %122, i32 noundef %123, ptr noundef %124, ptr noundef %125, ptr noundef %126, i16 noundef zeroext %127, ptr noundef @.str.128, ptr noundef @.str.129)
  store i32 %128, ptr %13, align 4
  br label %167

129:                                              ; preds = %32
  %130 = load ptr, ptr %6, align 8
  %131 = load i32, ptr %13, align 4
  %132 = load ptr, ptr %7, align 8
  %133 = load ptr, ptr %12, align 8
  %134 = load ptr, ptr %11, align 8
  %135 = load i16, ptr %10, align 2
  %136 = call i32 @dissect_PNPTCP_DelayPDU(ptr noundef %130, i32 noundef %131, ptr noundef %132, ptr noundef %133, ptr noundef %134, i16 noundef zeroext %135, ptr noundef @.str.130, ptr noundef @.str.131)
  store i32 %136, ptr %13, align 4
  br label %167

137:                                              ; preds = %32
  %138 = load ptr, ptr %6, align 8
  %139 = load i32, ptr %13, align 4
  %140 = load ptr, ptr %7, align 8
  %141 = load ptr, ptr %12, align 8
  %142 = load ptr, ptr %11, align 8
  %143 = load i16, ptr %10, align 2
  %144 = call i32 @dissect_PNPTCP_DelayPDU(ptr noundef %138, i32 noundef %139, ptr noundef %140, ptr noundef %141, ptr noundef %142, i16 noundef zeroext %143, ptr noundef @.str.128, ptr noundef @.str.129)
  store i32 %144, ptr %13, align 4
  br label %167

145:                                              ; preds = %32
  %146 = load ptr, ptr %6, align 8
  %147 = load i32, ptr %13, align 4
  %148 = load ptr, ptr %7, align 8
  %149 = load ptr, ptr %8, align 8
  %150 = load ptr, ptr %6, align 8
  %151 = load i32, ptr %13, align 4
  %152 = call i32 @tvb_captured_length_remaining(ptr noundef %150, i32 noundef %151)
  %153 = call i32 @dissect_pn_undecoded(ptr noundef %146, i32 noundef %147, ptr noundef %148, ptr noundef %149, i32 noundef %152)
  store i32 %153, ptr %13, align 4
  %154 = load ptr, ptr %7, align 8
  %155 = getelementptr inbounds nuw %struct._packet_info, ptr %154, i32 0, i32 1
  %156 = load ptr, ptr %155, align 8
  %157 = load i16, ptr %10, align 2
  %158 = zext i16 %157 to i32
  call void (ptr, i32, ptr, ...) @col_append_fstr(ptr noundef %156, i32 noundef 25, ptr noundef @.str.132, i32 noundef %158)
  %159 = load ptr, ptr %11, align 8
  %160 = load i16, ptr %10, align 2
  %161 = zext i16 %160 to i32
  call void (ptr, ptr, ...) @proto_item_append_text(ptr noundef %159, ptr noundef @.str.132, i32 noundef %161)
  %162 = load ptr, ptr %6, align 8
  %163 = load i32, ptr %13, align 4
  %164 = call i32 @tvb_captured_length_remaining(ptr noundef %162, i32 noundef %163)
  %165 = load i32, ptr %13, align 4
  %166 = add i32 %165, %164
  store i32 %166, ptr %13, align 4
  br label %167

167:                                              ; preds = %145, %137, %129, %121, %113, %105, %97, %89, %81, %73, %65, %57, %49
  %168 = load ptr, ptr %11, align 8
  %169 = load i32, ptr %13, align 4
  %170 = load i32, ptr %14, align 4
  %171 = sub i32 %169, %170
  call void @proto_item_set_len(ptr noundef %168, i32 noundef %171)
  store i1 true, ptr %5, align 1
  store i32 1, ptr %15, align 4
  br label %172

172:                                              ; preds = %167, %31
  call void @llvm.lifetime.end.p0(i64 4, ptr %14) #3
  call void @llvm.lifetime.end.p0(i64 4, ptr %13) #3
  call void @llvm.lifetime.end.p0(i64 8, ptr %12) #3
  call void @llvm.lifetime.end.p0(i64 8, ptr %11) #3
  call void @llvm.lifetime.end.p0(i64 2, ptr %10) #3
  %173 = load i1, ptr %5, align 1
  ret i1 %173
}