; Function Attrs: null_pointer_is_valid sspstrong uwtable
define internal noundef zeroext i1 @dissect_PNPTCP_Data_heur(ptr noundef %0, ptr noundef %1, ptr noundef %2, ptr noundef %3) #0 {
  %5 = ptrtoint ptr %3 to i64
  %6 = trunc i64 %5 to i32
  %7 = and i32 %6, 65535
  %8 = add nsw i32 %7, -65280
  %or.cond = icmp ult i32 %8, -65024
  %9 = icmp samesign ult i32 %7, 65376
  %or.cond5.not = select i1 %or.cond, i1 %9, i1 false
  br i1 %or.cond5.not, label %10, label %50

10:                                               ; preds = %4
  %11 = trunc i64 %5 to i16
  %12 = getelementptr inbounds nuw i8, ptr %1, i64 8
  %13 = load ptr, ptr %12, align 8
  tail call void @col_set_str(ptr noundef %13, i32 noundef 35, ptr noundef nonnull @.str.70)
  %14 = load ptr, ptr %12, align 8
  tail call void @col_clear(ptr noundef %14, i32 noundef 25)
  %15 = load i32, ptr @proto_pn_ptcp, align 4
  %16 = tail call ptr (ptr, i32, ptr, i32, i32, ptr, ...) @proto_tree_add_protocol_format(ptr noundef %2, i32 noundef %15, ptr noundef %0, i32 noundef 0, i32 noundef 0, ptr noundef nonnull @.str.110)
  %17 = load i32, ptr @ett_pn_ptcp, align 4
  %18 = tail call ptr @proto_item_add_subtree(ptr noundef %16, i32 noundef %17)
  switch i16 %11, label %43 [
    i16 32, label %19
    i16 33, label %21
    i16 128, label %23
    i16 129, label %25
    i16 -256, label %27
    i16 -255, label %29
    i16 -224, label %31
    i16 -223, label %33
    i16 -192, label %35
    i16 -191, label %37
    i16 -190, label %39
    i16 -189, label %41
  ]

19:                                               ; preds = %10
  %20 = tail call fastcc i32 @dissect_PNPTCP_RTSyncPDU(ptr noundef %0, ptr noundef %1, ptr noundef %18, ptr noundef %16, i16 noundef zeroext 32, ptr noundef nonnull @.str.111, ptr noundef nonnull @.str.111)
  br label %49

21:                                               ; preds = %10
  %22 = tail call fastcc i32 @dissect_PNPTCP_RTSyncPDU(ptr noundef %0, ptr noundef %1, ptr noundef %18, ptr noundef %16, i16 noundef zeroext 33, ptr noundef nonnull @.str.112, ptr noundef nonnull @.str.113)
  br label %49

23:                                               ; preds = %10
  %24 = tail call fastcc i32 @dissect_PNPTCP_RTSyncPDU(ptr noundef %0, ptr noundef %1, ptr noundef %18, ptr noundef %16, i16 noundef zeroext 128, ptr noundef nonnull @.str.114, ptr noundef nonnull @.str.115)
  br label %49

25:                                               ; preds = %10
  %26 = tail call fastcc i32 @dissect_PNPTCP_RTSyncPDU(ptr noundef %0, ptr noundef %1, ptr noundef %18, ptr noundef %16, i16 noundef zeroext 129, ptr noundef nonnull @.str.116, ptr noundef nonnull @.str.117)
  br label %49

27:                                               ; preds = %10
  %28 = tail call fastcc i32 @dissect_PNPTCP_AnnouncePDU(ptr noundef %0, ptr noundef %1, ptr noundef %18, ptr noundef %16, i16 noundef zeroext -256, ptr noundef nonnull @.str.118, ptr noundef nonnull @.str.119)
  br label %49

29:                                               ; preds = %10
  %30 = tail call fastcc i32 @dissect_PNPTCP_AnnouncePDU(ptr noundef %0, ptr noundef %1, ptr noundef %18, ptr noundef %16, i16 noundef zeroext -255, ptr noundef nonnull @.str.120, ptr noundef nonnull @.str.121)
  br label %49

31:                                               ; preds = %10
  %32 = tail call fastcc i32 @dissect_PNPTCP_FollowUpPDU(ptr noundef %0, ptr noundef %1, ptr noundef %18, ptr noundef %16, i16 noundef zeroext -224, ptr noundef nonnull @.str.122, ptr noundef nonnull @.str.123)
  br label %49

33:                                               ; preds = %10
  %34 = tail call fastcc i32 @dissect_PNPTCP_FollowUpPDU(ptr noundef %0, ptr noundef %1, ptr noundef %18, ptr noundef %16, i16 noundef zeroext -223, ptr noundef nonnull @.str.124, ptr noundef nonnull @.str.125)
  br label %49

35:                                               ; preds = %10
  %36 = tail call fastcc i32 @dissect_PNPTCP_DelayPDU(ptr noundef %0, ptr noundef %1, ptr noundef %18, ptr noundef %16, i16 noundef zeroext -192, ptr noundef nonnull @.str.126, ptr noundef nonnull @.str.127)
  br label %49

37:                                               ; preds = %10
  %38 = tail call fastcc i32 @dissect_PNPTCP_DelayPDU(ptr noundef %0, ptr noundef %1, ptr noundef %18, ptr noundef %16, i16 noundef zeroext -191, ptr noundef nonnull @.str.128, ptr noundef nonnull @.str.129)
  br label %49

39:                                               ; preds = %10
  %40 = tail call fastcc i32 @dissect_PNPTCP_DelayPDU(ptr noundef %0, ptr noundef %1, ptr noundef %18, ptr noundef %16, i16 noundef zeroext -190, ptr noundef nonnull @.str.130, ptr noundef nonnull @.str.131)
  br label %49

41:                                               ; preds = %10
  %42 = tail call fastcc i32 @dissect_PNPTCP_DelayPDU(ptr noundef %0, ptr noundef %1, ptr noundef %18, ptr noundef %16, i16 noundef zeroext -189, ptr noundef nonnull @.str.128, ptr noundef nonnull @.str.129)
  br label %49

43:                                               ; preds = %10
  %44 = tail call i32 @tvb_captured_length_remaining(ptr noundef %0, i32 noundef 0)
  %45 = tail call i32 @dissect_pn_undecoded(ptr noundef %0, i32 noundef 0, ptr noundef %1, ptr noundef %2, i32 noundef %44)
  %46 = load ptr, ptr %12, align 8
  tail call void (ptr, i32, ptr, ...) @col_append_fstr(ptr noundef %46, i32 noundef 25, ptr noundef nonnull @.str.132, i32 noundef %7)
  tail call void (ptr, ptr, ...) @proto_item_append_text(ptr noundef %16, ptr noundef nonnull @.str.132, i32 noundef %7)
  %47 = tail call i32 @tvb_captured_length_remaining(ptr noundef %0, i32 noundef %45)
  %48 = add i32 %47, %45
  br label %49

49:                                               ; preds = %43, %41, %39, %37, %35, %33, %31, %29, %27, %25, %23, %21, %19
  %.0104 = phi i32 [ %48, %43 ], [ %42, %41 ], [ %40, %39 ], [ %38, %37 ], [ %36, %35 ], [ %34, %33 ], [ %32, %31 ], [ %30, %29 ], [ %28, %27 ], [ %26, %25 ], [ %24, %23 ], [ %22, %21 ], [ %20, %19 ]
  tail call void @proto_item_set_len(ptr noundef %16, i32 noundef %.0104)
  br label %50

50:                                               ; preds = %4, %49
  ret i1 %or.cond5.not
}